target datalayout = "e-m:e-p270:32:32-p271:32:32-p272:64:64-i64:64-i128:128-f80:128-n8:16:32:64-S128"
target triple = "x86_64-pc-linux-gnu"

@_ZN13MethodHandles8_enabledE = hidden global i8 0, align 1
@g_assert_poison = external global ptr, align 8
@.str.6 = private unnamed_addr constant [42 x i8] c"src/hotspot/share/prims/methodHandles.cpp\00", align 1
@.str.7 = private unnamed_addr constant [20 x i8] c"guarantee(z) failed\00", align 1
@.str.8 = private unnamed_addr constant [21 x i8] c"can only enable once\00", align 1

; Function Attrs: mustprogress nounwind uwtable
define hidden void @_ZN13MethodHandles11set_enabledEb(i1 noundef zeroext %0) #1 align 2 {
  %2 = alloca i8, align 1
  %3 = zext i1 %0 to i8
  store i8 %3, ptr %2, align 1
  %4 = load i8, ptr @_ZN13MethodHandles8_enabledE, align 1
  %5 = trunc i8 %4 to i1
  %6 = zext i1 %5 to i32
  %7 = load i8, ptr %2, align 1
  %8 = trunc i8 %7 to i1
  %9 = zext i1 %8 to i32
  %10 = icmp ne i32 %6, %9
  br i1 %10, label %11, label %22

11:                                               ; preds = %1
  br label %12

12:                                               ; preds = %11
  %13 = load i8, ptr %2, align 1
  %14 = trunc i8 %13 to i1
  br i1 %14, label %17, label %15

15:                                               ; preds = %12
  %16 = load ptr, ptr @g_assert_poison, align 8
  store i8 88, ptr %16, align 1
  call void (ptr, i32, ptr, ptr, ...) @_Z15report_vm_errorPKciS0_S0_z(ptr noundef @.str.6, i32 noundef 124, ptr noundef @.str.7, ptr noundef @.str.8) #11
  unreachable

17:                                               ; preds = %12
  br label %18

18:                                               ; preds = %17
  %19 = load i8, ptr %2, align 1
  %20 = trunc i8 %19 to i1
  %21 = zext i1 %20 to i8
  store i8 %21, ptr @_ZN13MethodHandles8_enabledE, align 1
  br label %22

22:                                               ; preds = %18, %1
  ret void
}