; Function Attrs: mustprogress nounwind uwtable
define hidden void @_ZN13MethodHandles11set_enabledEb(i1 noundef zeroext %0) local_unnamed_addr #0 align 2 {
  %2 = zext i1 %0 to i8
  %3 = load i8, ptr @_ZN13MethodHandles8_enabledE, align 1
  %4 = trunc i8 %3 to i1
  %5 = xor i1 %4, %0
  br i1 %5, label %6, label %10

6:                                                ; preds = %1
  br i1 %0, label %9, label %7

7:                                                ; preds = %6
  %8 = load ptr, ptr @g_assert_poison, align 8
  store i8 88, ptr %8, align 1
  tail call void (ptr, i32, ptr, ptr, ...) @_Z15report_vm_errorPKciS0_S0_z(ptr noundef nonnull @.str.6, i32 noundef 124, ptr noundef nonnull @.str.7, ptr noundef nonnull @.str.8) #14
  unreachable

9:                                                ; preds = %6
  store i8 %2, ptr @_ZN13MethodHandles8_enabledE, align 1
  br label %10

10:                                               ; preds = %9, %1
  ret void
}